
bomb:     file format elf64-x86-64


Disassembly of section .init:

0000000000400b68 <_init>:
  400b68:	48 83 ec 08          	sub    $0x8,%rsp
  400b6c:	48 8b 05 85 24 20 00 	mov    0x202485(%rip),%rax        # 602ff8 <__gmon_start__>
  400b73:	48 85 c0             	test   %rax,%rax
  400b76:	74 02                	je     400b7a <_init+0x12>
  400b78:	ff d0                	callq  *%rax
  400b7a:	48 83 c4 08          	add    $0x8,%rsp
  400b7e:	c3                   	retq   

Disassembly of section .plt:

0000000000400b80 <.plt>:
  400b80:	ff 35 82 24 20 00    	pushq  0x202482(%rip)        # 603008 <_GLOBAL_OFFSET_TABLE_+0x8>
  400b86:	ff 25 84 24 20 00    	jmpq   *0x202484(%rip)        # 603010 <_GLOBAL_OFFSET_TABLE_+0x10>
  400b8c:	0f 1f 40 00          	nopl   0x0(%rax)

0000000000400b90 <getenv@plt>:
  400b90:	ff 25 82 24 20 00    	jmpq   *0x202482(%rip)        # 603018 <getenv@GLIBC_2.2.5>
  400b96:	68 00 00 00 00       	pushq  $0x0
  400b9b:	e9 e0 ff ff ff       	jmpq   400b80 <.plt>

0000000000400ba0 <__errno_location@plt>:
  400ba0:	ff 25 7a 24 20 00    	jmpq   *0x20247a(%rip)        # 603020 <__errno_location@GLIBC_2.2.5>
  400ba6:	68 01 00 00 00       	pushq  $0x1
  400bab:	e9 d0 ff ff ff       	jmpq   400b80 <.plt>

0000000000400bb0 <strcpy@plt>:
  400bb0:	ff 25 72 24 20 00    	jmpq   *0x202472(%rip)        # 603028 <strcpy@GLIBC_2.2.5>
  400bb6:	68 02 00 00 00       	pushq  $0x2
  400bbb:	e9 c0 ff ff ff       	jmpq   400b80 <.plt>

0000000000400bc0 <puts@plt>:
  400bc0:	ff 25 6a 24 20 00    	jmpq   *0x20246a(%rip)        # 603030 <puts@GLIBC_2.2.5>
  400bc6:	68 03 00 00 00       	pushq  $0x3
  400bcb:	e9 b0 ff ff ff       	jmpq   400b80 <.plt>

0000000000400bd0 <write@plt>:
  400bd0:	ff 25 62 24 20 00    	jmpq   *0x202462(%rip)        # 603038 <write@GLIBC_2.2.5>
  400bd6:	68 04 00 00 00       	pushq  $0x4
  400bdb:	e9 a0 ff ff ff       	jmpq   400b80 <.plt>

0000000000400be0 <fclose@plt>:
  400be0:	ff 25 5a 24 20 00    	jmpq   *0x20245a(%rip)        # 603040 <fclose@GLIBC_2.2.5>
  400be6:	68 05 00 00 00       	pushq  $0x5
  400beb:	e9 90 ff ff ff       	jmpq   400b80 <.plt>

0000000000400bf0 <system@plt>:
  400bf0:	ff 25 52 24 20 00    	jmpq   *0x202452(%rip)        # 603048 <system@GLIBC_2.2.5>
  400bf6:	68 06 00 00 00       	pushq  $0x6
  400bfb:	e9 80 ff ff ff       	jmpq   400b80 <.plt>

0000000000400c00 <printf@plt>:
  400c00:	ff 25 4a 24 20 00    	jmpq   *0x20244a(%rip)        # 603050 <printf@GLIBC_2.2.5>
  400c06:	68 07 00 00 00       	pushq  $0x7
  400c0b:	e9 70 ff ff ff       	jmpq   400b80 <.plt>

0000000000400c10 <rewind@plt>:
  400c10:	ff 25 42 24 20 00    	jmpq   *0x202442(%rip)        # 603058 <rewind@GLIBC_2.2.5>
  400c16:	68 08 00 00 00       	pushq  $0x8
  400c1b:	e9 60 ff ff ff       	jmpq   400b80 <.plt>

0000000000400c20 <dup@plt>:
  400c20:	ff 25 3a 24 20 00    	jmpq   *0x20243a(%rip)        # 603060 <dup@GLIBC_2.2.5>
  400c26:	68 09 00 00 00       	pushq  $0x9
  400c2b:	e9 50 ff ff ff       	jmpq   400b80 <.plt>

0000000000400c30 <close@plt>:
  400c30:	ff 25 32 24 20 00    	jmpq   *0x202432(%rip)        # 603068 <close@GLIBC_2.2.5>
  400c36:	68 0a 00 00 00       	pushq  $0xa
  400c3b:	e9 40 ff ff ff       	jmpq   400b80 <.plt>

0000000000400c40 <fputc@plt>:
  400c40:	ff 25 2a 24 20 00    	jmpq   *0x20242a(%rip)        # 603070 <fputc@GLIBC_2.2.5>
  400c46:	68 0b 00 00 00       	pushq  $0xb
  400c4b:	e9 30 ff ff ff       	jmpq   400b80 <.plt>

0000000000400c50 <fgets@plt>:
  400c50:	ff 25 22 24 20 00    	jmpq   *0x202422(%rip)        # 603078 <fgets@GLIBC_2.2.5>
  400c56:	68 0c 00 00 00       	pushq  $0xc
  400c5b:	e9 20 ff ff ff       	jmpq   400b80 <.plt>

0000000000400c60 <tmpfile@plt>:
  400c60:	ff 25 1a 24 20 00    	jmpq   *0x20241a(%rip)        # 603080 <tmpfile@GLIBC_2.2.5>
  400c66:	68 0d 00 00 00       	pushq  $0xd
  400c6b:	e9 10 ff ff ff       	jmpq   400b80 <.plt>

0000000000400c70 <signal@plt>:
  400c70:	ff 25 12 24 20 00    	jmpq   *0x202412(%rip)        # 603088 <signal@GLIBC_2.2.5>
  400c76:	68 0e 00 00 00       	pushq  $0xe
  400c7b:	e9 00 ff ff ff       	jmpq   400b80 <.plt>

0000000000400c80 <gethostbyname@plt>:
  400c80:	ff 25 0a 24 20 00    	jmpq   *0x20240a(%rip)        # 603090 <gethostbyname@GLIBC_2.2.5>
  400c86:	68 0f 00 00 00       	pushq  $0xf
  400c8b:	e9 f0 fe ff ff       	jmpq   400b80 <.plt>

0000000000400c90 <fprintf@plt>:
  400c90:	ff 25 02 24 20 00    	jmpq   *0x202402(%rip)        # 603098 <fprintf@GLIBC_2.2.5>
  400c96:	68 10 00 00 00       	pushq  $0x10
  400c9b:	e9 e0 fe ff ff       	jmpq   400b80 <.plt>

0000000000400ca0 <strtol@plt>:
  400ca0:	ff 25 fa 23 20 00    	jmpq   *0x2023fa(%rip)        # 6030a0 <strtol@GLIBC_2.2.5>
  400ca6:	68 11 00 00 00       	pushq  $0x11
  400cab:	e9 d0 fe ff ff       	jmpq   400b80 <.plt>

0000000000400cb0 <inet_pton@plt>:
  400cb0:	ff 25 f2 23 20 00    	jmpq   *0x2023f2(%rip)        # 6030a8 <inet_pton@GLIBC_2.2.5>
  400cb6:	68 12 00 00 00       	pushq  $0x12
  400cbb:	e9 c0 fe ff ff       	jmpq   400b80 <.plt>

0000000000400cc0 <fflush@plt>:
  400cc0:	ff 25 ea 23 20 00    	jmpq   *0x2023ea(%rip)        # 6030b0 <fflush@GLIBC_2.2.5>
  400cc6:	68 13 00 00 00       	pushq  $0x13
  400ccb:	e9 b0 fe ff ff       	jmpq   400b80 <.plt>

0000000000400cd0 <__isoc99_sscanf@plt>:
  400cd0:	ff 25 e2 23 20 00    	jmpq   *0x2023e2(%rip)        # 6030b8 <__isoc99_sscanf@GLIBC_2.7>
  400cd6:	68 14 00 00 00       	pushq  $0x14
  400cdb:	e9 a0 fe ff ff       	jmpq   400b80 <.plt>

0000000000400ce0 <bcopy@plt>:
  400ce0:	ff 25 da 23 20 00    	jmpq   *0x2023da(%rip)        # 6030c0 <bcopy@GLIBC_2.2.5>
  400ce6:	68 15 00 00 00       	pushq  $0x15
  400ceb:	e9 90 fe ff ff       	jmpq   400b80 <.plt>

0000000000400cf0 <cuserid@plt>:
  400cf0:	ff 25 d2 23 20 00    	jmpq   *0x2023d2(%rip)        # 6030c8 <cuserid@GLIBC_2.2.5>
  400cf6:	68 16 00 00 00       	pushq  $0x16
  400cfb:	e9 80 fe ff ff       	jmpq   400b80 <.plt>

0000000000400d00 <fopen@plt>:
  400d00:	ff 25 ca 23 20 00    	jmpq   *0x2023ca(%rip)        # 6030d0 <fopen@GLIBC_2.2.5>
  400d06:	68 17 00 00 00       	pushq  $0x17
  400d0b:	e9 70 fe ff ff       	jmpq   400b80 <.plt>

0000000000400d10 <strcat@plt>:
  400d10:	ff 25 c2 23 20 00    	jmpq   *0x2023c2(%rip)        # 6030d8 <strcat@GLIBC_2.2.5>
  400d16:	68 18 00 00 00       	pushq  $0x18
  400d1b:	e9 60 fe ff ff       	jmpq   400b80 <.plt>

0000000000400d20 <sprintf@plt>:
  400d20:	ff 25 ba 23 20 00    	jmpq   *0x2023ba(%rip)        # 6030e0 <sprintf@GLIBC_2.2.5>
  400d26:	68 19 00 00 00       	pushq  $0x19
  400d2b:	e9 50 fe ff ff       	jmpq   400b80 <.plt>

0000000000400d30 <exit@plt>:
  400d30:	ff 25 b2 23 20 00    	jmpq   *0x2023b2(%rip)        # 6030e8 <exit@GLIBC_2.2.5>
  400d36:	68 1a 00 00 00       	pushq  $0x1a
  400d3b:	e9 40 fe ff ff       	jmpq   400b80 <.plt>

0000000000400d40 <connect@plt>:
  400d40:	ff 25 aa 23 20 00    	jmpq   *0x2023aa(%rip)        # 6030f0 <connect@GLIBC_2.2.5>
  400d46:	68 1b 00 00 00       	pushq  $0x1b
  400d4b:	e9 30 fe ff ff       	jmpq   400b80 <.plt>

0000000000400d50 <fwrite@plt>:
  400d50:	ff 25 a2 23 20 00    	jmpq   *0x2023a2(%rip)        # 6030f8 <fwrite@GLIBC_2.2.5>
  400d56:	68 1c 00 00 00       	pushq  $0x1c
  400d5b:	e9 20 fe ff ff       	jmpq   400b80 <.plt>

0000000000400d60 <sleep@plt>:
  400d60:	ff 25 9a 23 20 00    	jmpq   *0x20239a(%rip)        # 603100 <sleep@GLIBC_2.2.5>
  400d66:	68 1d 00 00 00       	pushq  $0x1d
  400d6b:	e9 10 fe ff ff       	jmpq   400b80 <.plt>

0000000000400d70 <__ctype_b_loc@plt>:
  400d70:	ff 25 92 23 20 00    	jmpq   *0x202392(%rip)        # 603108 <__ctype_b_loc@GLIBC_2.3>
  400d76:	68 1e 00 00 00       	pushq  $0x1e
  400d7b:	e9 00 fe ff ff       	jmpq   400b80 <.plt>

0000000000400d80 <socket@plt>:
  400d80:	ff 25 8a 23 20 00    	jmpq   *0x20238a(%rip)        # 603110 <socket@GLIBC_2.2.5>
  400d86:	68 1f 00 00 00       	pushq  $0x1f
  400d8b:	e9 f0 fd ff ff       	jmpq   400b80 <.plt>

Disassembly of section .text:

0000000000400d90 <_start>:
  400d90:	31 ed                	xor    %ebp,%ebp
  400d92:	49 89 d1             	mov    %rdx,%r9
  400d95:	5e                   	pop    %rsi
  400d96:	48 89 e2             	mov    %rsp,%rdx
  400d99:	48 83 e4 f0          	and    $0xfffffffffffffff0,%rsp
  400d9d:	50                   	push   %rax
  400d9e:	54                   	push   %rsp
  400d9f:	49 c7 c0 a0 1e 40 00 	mov    $0x401ea0,%r8
  400da6:	48 c7 c1 30 1e 40 00 	mov    $0x401e30,%rcx
  400dad:	48 c7 c7 86 0e 40 00 	mov    $0x400e86,%rdi
  400db4:	ff 15 36 22 20 00    	callq  *0x202236(%rip)        # 602ff0 <__libc_start_main@GLIBC_2.2.5>
  400dba:	f4                   	hlt    
  400dbb:	0f 1f 44 00 00       	nopl   0x0(%rax,%rax,1)

0000000000400dc0 <deregister_tm_clones>:
  400dc0:	b8 a7 37 60 00       	mov    $0x6037a7,%eax
  400dc5:	55                   	push   %rbp
  400dc6:	48 2d a0 37 60 00    	sub    $0x6037a0,%rax
  400dcc:	48 83 f8 0e          	cmp    $0xe,%rax
  400dd0:	48 89 e5             	mov    %rsp,%rbp
  400dd3:	76 1b                	jbe    400df0 <deregister_tm_clones+0x30>
  400dd5:	b8 00 00 00 00       	mov    $0x0,%eax
  400dda:	48 85 c0             	test   %rax,%rax
  400ddd:	74 11                	je     400df0 <deregister_tm_clones+0x30>
  400ddf:	5d                   	pop    %rbp
  400de0:	bf a0 37 60 00       	mov    $0x6037a0,%edi
  400de5:	ff e0                	jmpq   *%rax
  400de7:	66 0f 1f 84 00 00 00 	nopw   0x0(%rax,%rax,1)
  400dee:	00 00 
  400df0:	5d                   	pop    %rbp
  400df1:	c3                   	retq   
  400df2:	0f 1f 40 00          	nopl   0x0(%rax)
  400df6:	66 2e 0f 1f 84 00 00 	nopw   %cs:0x0(%rax,%rax,1)
  400dfd:	00 00 00 

0000000000400e00 <register_tm_clones>:
  400e00:	be a0 37 60 00       	mov    $0x6037a0,%esi
  400e05:	55                   	push   %rbp
  400e06:	48 81 ee a0 37 60 00 	sub    $0x6037a0,%rsi
  400e0d:	48 c1 fe 03          	sar    $0x3,%rsi
  400e11:	48 89 e5             	mov    %rsp,%rbp
  400e14:	48 89 f0             	mov    %rsi,%rax
  400e17:	48 c1 e8 3f          	shr    $0x3f,%rax
  400e1b:	48 01 c6             	add    %rax,%rsi
  400e1e:	48 d1 fe             	sar    %rsi
  400e21:	74 15                	je     400e38 <register_tm_clones+0x38>
  400e23:	b8 00 00 00 00       	mov    $0x0,%eax
  400e28:	48 85 c0             	test   %rax,%rax
  400e2b:	74 0b                	je     400e38 <register_tm_clones+0x38>
  400e2d:	5d                   	pop    %rbp
  400e2e:	bf a0 37 60 00       	mov    $0x6037a0,%edi
  400e33:	ff e0                	jmpq   *%rax
  400e35:	0f 1f 00             	nopl   (%rax)
  400e38:	5d                   	pop    %rbp
  400e39:	c3                   	retq   
  400e3a:	66 0f 1f 44 00 00    	nopw   0x0(%rax,%rax,1)

0000000000400e40 <__do_global_dtors_aux>:
  400e40:	80 3d 71 29 20 00 00 	cmpb   $0x0,0x202971(%rip)        # 6037b8 <completed.6972>
  400e47:	75 11                	jne    400e5a <__do_global_dtors_aux+0x1a>
  400e49:	55                   	push   %rbp
  400e4a:	48 89 e5             	mov    %rsp,%rbp
  400e4d:	e8 6e ff ff ff       	callq  400dc0 <deregister_tm_clones>
  400e52:	5d                   	pop    %rbp
  400e53:	c6 05 5e 29 20 00 01 	movb   $0x1,0x20295e(%rip)        # 6037b8 <completed.6972>
  400e5a:	f3 c3                	repz retq 
  400e5c:	0f 1f 40 00          	nopl   0x0(%rax)

0000000000400e60 <frame_dummy>:
  400e60:	bf 18 2e 60 00       	mov    $0x602e18,%edi
  400e65:	48 83 3f 00          	cmpq   $0x0,(%rdi)
  400e69:	75 05                	jne    400e70 <frame_dummy+0x10>
  400e6b:	eb 93                	jmp    400e00 <register_tm_clones>
  400e6d:	0f 1f 00             	nopl   (%rax)
  400e70:	b8 00 00 00 00       	mov    $0x0,%eax
  400e75:	48 85 c0             	test   %rax,%rax
  400e78:	74 f1                	je     400e6b <frame_dummy+0xb>
  400e7a:	55                   	push   %rbp
  400e7b:	48 89 e5             	mov    %rsp,%rbp
  400e7e:	ff d0                	callq  *%rax
  400e80:	5d                   	pop    %rbp
  400e81:	e9 7a ff ff ff       	jmpq   400e00 <register_tm_clones>

0000000000400e86 <main>:
  400e86:	53                   	push   %rbx
  400e87:	83 ff 01             	cmp    $0x1,%edi
  400e8a:	0f 84 f8 00 00 00    	je     400f88 <main+0x102>
  400e90:	48 89 f3             	mov    %rsi,%rbx
  400e93:	83 ff 02             	cmp    $0x2,%edi
  400e96:	0f 85 1c 01 00 00    	jne    400fb8 <main+0x132>
  400e9c:	48 8b 7e 08          	mov    0x8(%rsi),%rdi
  400ea0:	48 8d 35 33 14 00 00 	lea    0x1433(%rip),%rsi        # 4022da <array.3088+0x25a>
  400ea7:	e8 54 fe ff ff       	callq  400d00 <fopen@plt>
  400eac:	48 89 05 0d 29 20 00 	mov    %rax,0x20290d(%rip)        # 6037c0 <infile>
  400eb3:	48 85 c0             	test   %rax,%rax
  400eb6:	0f 84 df 00 00 00    	je     400f9b <main+0x115>
  400ebc:	e8 70 06 00 00       	callq  401531 <initialize_bomb>
  400ec1:	48 8d 3d 80 10 00 00 	lea    0x1080(%rip),%rdi        # 401f48 <_IO_stdin_used+0x88>
  400ec8:	e8 f3 fc ff ff       	callq  400bc0 <puts@plt>
  400ecd:	48 8d 3d b4 10 00 00 	lea    0x10b4(%rip),%rdi        # 401f88 <_IO_stdin_used+0xc8>
  400ed4:	e8 e7 fc ff ff       	callq  400bc0 <puts@plt>
  400ed9:	e8 ae 0d 00 00       	callq  401c8c <read_line>
  400ede:	48 89 c7             	mov    %rax,%rdi
  400ee1:	e8 f0 00 00 00       	callq  400fd6 <phase_1>
  400ee6:	e8 a2 0e 00 00       	callq  401d8d <phase_defused>
  400eeb:	48 8d 3d c6 10 00 00 	lea    0x10c6(%rip),%rdi        # 401fb8 <_IO_stdin_used+0xf8>
  400ef2:	e8 c9 fc ff ff       	callq  400bc0 <puts@plt>
  400ef7:	e8 90 0d 00 00       	callq  401c8c <read_line>
  400efc:	48 89 c7             	mov    %rax,%rdi
  400eff:	e8 f2 00 00 00       	callq  400ff6 <phase_2>
  400f04:	e8 84 0e 00 00       	callq  401d8d <phase_defused>
  400f09:	48 8d 3d eb 0f 00 00 	lea    0xfeb(%rip),%rdi        # 401efb <_IO_stdin_used+0x3b>
  400f10:	e8 ab fc ff ff       	callq  400bc0 <puts@plt>
  400f15:	e8 72 0d 00 00       	callq  401c8c <read_line>
  400f1a:	48 89 c7             	mov    %rax,%rdi
  400f1d:	e8 1c 01 00 00       	callq  40103e <phase_3>
  400f22:	e8 66 0e 00 00       	callq  401d8d <phase_defused>
  400f27:	48 8d 3d eb 0f 00 00 	lea    0xfeb(%rip),%rdi        # 401f19 <_IO_stdin_used+0x59>
  400f2e:	e8 8d fc ff ff       	callq  400bc0 <puts@plt>
  400f33:	e8 54 0d 00 00       	callq  401c8c <read_line>
  400f38:	48 89 c7             	mov    %rax,%rdi
  400f3b:	e8 ea 01 00 00       	callq  40112a <phase_4>
  400f40:	e8 48 0e 00 00       	callq  401d8d <phase_defused>
  400f45:	48 8d 3d 9c 10 00 00 	lea    0x109c(%rip),%rdi        # 401fe8 <_IO_stdin_used+0x128>
  400f4c:	e8 6f fc ff ff       	callq  400bc0 <puts@plt>
  400f51:	e8 36 0d 00 00       	callq  401c8c <read_line>
  400f56:	48 89 c7             	mov    %rax,%rdi
  400f59:	e8 13 02 00 00       	callq  401171 <phase_5>
  400f5e:	e8 2a 0e 00 00       	callq  401d8d <phase_defused>
  400f63:	48 8d 3d be 0f 00 00 	lea    0xfbe(%rip),%rdi        # 401f28 <_IO_stdin_used+0x68>
  400f6a:	e8 51 fc ff ff       	callq  400bc0 <puts@plt>
  400f6f:	e8 18 0d 00 00       	callq  401c8c <read_line>
  400f74:	48 89 c7             	mov    %rax,%rdi
  400f77:	e8 6d 02 00 00       	callq  4011e9 <phase_6>
  400f7c:	e8 0c 0e 00 00       	callq  401d8d <phase_defused>
  400f81:	b8 00 00 00 00       	mov    $0x0,%eax
  400f86:	5b                   	pop    %rbx
  400f87:	c3                   	retq   
  400f88:	48 8b 05 21 28 20 00 	mov    0x202821(%rip),%rax        # 6037b0 <stdin@@GLIBC_2.2.5>
  400f8f:	48 89 05 2a 28 20 00 	mov    %rax,0x20282a(%rip)        # 6037c0 <infile>
  400f96:	e9 21 ff ff ff       	jmpq   400ebc <main+0x36>
  400f9b:	48 8b 53 08          	mov    0x8(%rbx),%rdx
  400f9f:	48 8b 33             	mov    (%rbx),%rsi
  400fa2:	48 8d 3d 1b 0f 00 00 	lea    0xf1b(%rip),%rdi        # 401ec4 <_IO_stdin_used+0x4>
  400fa9:	e8 52 fc ff ff       	callq  400c00 <printf@plt>
  400fae:	bf 08 00 00 00       	mov    $0x8,%edi
  400fb3:	e8 78 fd ff ff       	callq  400d30 <exit@plt>
  400fb8:	48 8b 36             	mov    (%rsi),%rsi
  400fbb:	48 8d 3d 1f 0f 00 00 	lea    0xf1f(%rip),%rdi        # 401ee1 <_IO_stdin_used+0x21>
  400fc2:	b8 00 00 00 00       	mov    $0x0,%eax
  400fc7:	e8 34 fc ff ff       	callq  400c00 <printf@plt>
  400fcc:	bf 08 00 00 00       	mov    $0x8,%edi
  400fd1:	e8 5a fd ff ff       	callq  400d30 <exit@plt>

0000000000400fd6 <phase_1>:
  400fd6:	48 83 ec 08          	sub    $0x8,%rsp
  400fda:	48 8d 35 2f 10 00 00 	lea    0x102f(%rip),%rsi        # 402010 <_IO_stdin_used+0x150>
  400fe1:	e8 19 04 00 00       	callq  4013ff <strings_not_equal>
  400fe6:	85 c0                	test   %eax,%eax
  400fe8:	75 05                	jne    400fef <phase_1+0x19>
  400fea:	48 83 c4 08          	add    $0x8,%rsp
  400fee:	c3                   	retq   
  400fef:	e8 1b 0c 00 00       	callq  401c0f <explode_bomb>
  400ff4:	eb f4                	jmp    400fea <phase_1+0x14>

0000000000400ff6 <phase_2>:
  400ff6:	55                   	push   %rbp
  400ff7:	53                   	push   %rbx
  400ff8:	48 83 ec 28          	sub    $0x28,%rsp
  400ffc:	48 89 e6             	mov    %rsp,%rsi
  400fff:	e8 47 0c 00 00       	callq  401c4b <read_six_numbers>
  401004:	83 3c 24 01          	cmpl   $0x1,(%rsp)
  401008:	74 05                	je     40100f <phase_2+0x19>
  40100a:	e8 00 0c 00 00       	callq  401c0f <explode_bomb>
  40100f:	48 89 e5             	mov    %rsp,%rbp
  401012:	bb 01 00 00 00       	mov    $0x1,%ebx
  401017:	eb 09                	jmp    401022 <phase_2+0x2c>
  401019:	48 83 c5 04          	add    $0x4,%rbp
  40101d:	83 fb 06             	cmp    $0x6,%ebx
  401020:	74 15                	je     401037 <phase_2+0x41>
  401022:	83 c3 01             	add    $0x1,%ebx
  401025:	89 d8                	mov    %ebx,%eax
  401027:	0f af 45 00          	imul   0x0(%rbp),%eax
  40102b:	39 45 04             	cmp    %eax,0x4(%rbp)
  40102e:	74 e9                	je     401019 <phase_2+0x23>
  401030:	e8 da 0b 00 00       	callq  401c0f <explode_bomb>
  401035:	eb e2                	jmp    401019 <phase_2+0x23>
  401037:	48 83 c4 28          	add    $0x28,%rsp
  40103b:	5b                   	pop    %rbx
  40103c:	5d                   	pop    %rbp
  40103d:	c3                   	retq   

000000000040103e <phase_3>:
  40103e:	48 83 ec 18          	sub    $0x18,%rsp
  401042:	48 8d 4c 24 08       	lea    0x8(%rsp),%rcx
  401047:	48 8d 54 24 0c       	lea    0xc(%rsp),%rdx
  40104c:	48 8d 35 90 13 00 00 	lea    0x1390(%rip),%rsi        # 4023e3 <array.3088+0x363>
  401053:	b8 00 00 00 00       	mov    $0x0,%eax
  401058:	e8 73 fc ff ff       	callq  400cd0 <__isoc99_sscanf@plt>
  40105d:	83 f8 01             	cmp    $0x1,%eax
  401060:	7e 1f                	jle    401081 <phase_3+0x43>
  401062:	83 7c 24 0c 07       	cmpl   $0x7,0xc(%rsp)
  401067:	0f 87 8b 00 00 00    	ja     4010f8 <phase_3+0xba>
  40106d:	8b 44 24 0c          	mov    0xc(%rsp),%eax
  401071:	48 8d 15 e8 0f 00 00 	lea    0xfe8(%rip),%rdx        # 402060 <_IO_stdin_used+0x1a0>
  401078:	48 63 04 82          	movslq (%rdx,%rax,4),%rax
  40107c:	48 01 d0             	add    %rdx,%rax
  40107f:	ff e0                	jmpq   *%rax
  401081:	e8 89 0b 00 00       	callq  401c0f <explode_bomb>
  401086:	eb da                	jmp    401062 <phase_3+0x24>
  401088:	b8 9e 03 00 00       	mov    $0x39e,%eax
  40108d:	eb 05                	jmp    401094 <phase_3+0x56>
  40108f:	b8 00 00 00 00       	mov    $0x0,%eax
  401094:	2d 45 01 00 00       	sub    $0x145,%eax
  401099:	05 0f 03 00 00       	add    $0x30f,%eax
  40109e:	2d d5 00 00 00       	sub    $0xd5,%eax
  4010a3:	05 b5 01 00 00       	add    $0x1b5,%eax
  4010a8:	2d a8 03 00 00       	sub    $0x3a8,%eax
  4010ad:	05 a8 03 00 00       	add    $0x3a8,%eax
  4010b2:	2d c4 00 00 00       	sub    $0xc4,%eax
  4010b7:	83 7c 24 0c 05       	cmpl   $0x5,0xc(%rsp)
  4010bc:	7f 06                	jg     4010c4 <phase_3+0x86>
  4010be:	3b 44 24 08          	cmp    0x8(%rsp),%eax
  4010c2:	74 05                	je     4010c9 <phase_3+0x8b>
  4010c4:	e8 46 0b 00 00       	callq  401c0f <explode_bomb>
  4010c9:	48 83 c4 18          	add    $0x18,%rsp
  4010cd:	c3                   	retq   
  4010ce:	b8 00 00 00 00       	mov    $0x0,%eax
  4010d3:	eb c4                	jmp    401099 <phase_3+0x5b>
  4010d5:	b8 00 00 00 00       	mov    $0x0,%eax
  4010da:	eb c2                	jmp    40109e <phase_3+0x60>
  4010dc:	b8 00 00 00 00       	mov    $0x0,%eax
  4010e1:	eb c0                	jmp    4010a3 <phase_3+0x65>
  4010e3:	b8 00 00 00 00       	mov    $0x0,%eax
  4010e8:	eb be                	jmp    4010a8 <phase_3+0x6a>
  4010ea:	b8 00 00 00 00       	mov    $0x0,%eax
  4010ef:	eb bc                	jmp    4010ad <phase_3+0x6f>
  4010f1:	b8 00 00 00 00       	mov    $0x0,%eax
  4010f6:	eb ba                	jmp    4010b2 <phase_3+0x74>
  4010f8:	e8 12 0b 00 00       	callq  401c0f <explode_bomb>
  4010fd:	b8 00 00 00 00       	mov    $0x0,%eax
  401102:	eb b3                	jmp    4010b7 <phase_3+0x79>

0000000000401104 <func4>:
  401104:	b8 01 00 00 00       	mov    $0x1,%eax
  401109:	85 ff                	test   %edi,%edi
  40110b:	7e 1b                	jle    401128 <func4+0x24>
  40110d:	48 83 ec 08          	sub    $0x8,%rsp
  401111:	83 ef 01             	sub    $0x1,%edi
  401114:	e8 eb ff ff ff       	callq  401104 <func4>
  401119:	8d 14 c5 00 00 00 00 	lea    0x0(,%rax,8),%edx
  401120:	29 c2                	sub    %eax,%edx
  401122:	89 d0                	mov    %edx,%eax
  401124:	48 83 c4 08          	add    $0x8,%rsp
  401128:	f3 c3                	repz retq 

000000000040112a <phase_4>:
  40112a:	48 83 ec 18          	sub    $0x18,%rsp
  40112e:	48 8d 54 24 0c       	lea    0xc(%rsp),%rdx
  401133:	48 8d 35 ac 12 00 00 	lea    0x12ac(%rip),%rsi        # 4023e6 <array.3088+0x366>
  40113a:	b8 00 00 00 00       	mov    $0x0,%eax
  40113f:	e8 8c fb ff ff       	callq  400cd0 <__isoc99_sscanf@plt>
  401144:	83 f8 01             	cmp    $0x1,%eax
  401147:	74 1f                	je     401168 <phase_4+0x3e>
  401149:	e8 c1 0a 00 00       	callq  401c0f <explode_bomb>
  40114e:	8b 7c 24 0c          	mov    0xc(%rsp),%edi
  401152:	e8 ad ff ff ff       	callq  401104 <func4>
  401157:	3d 91 cb 01 00       	cmp    $0x1cb91,%eax
  40115c:	74 05                	je     401163 <phase_4+0x39>
  40115e:	e8 ac 0a 00 00       	callq  401c0f <explode_bomb>
  401163:	48 83 c4 18          	add    $0x18,%rsp
  401167:	c3                   	retq   
  401168:	83 7c 24 0c 00       	cmpl   $0x0,0xc(%rsp)
  40116d:	7f df                	jg     40114e <phase_4+0x24>
  40116f:	eb d8                	jmp    401149 <phase_4+0x1f>

0000000000401171 <phase_5>:
  401171:	48 83 ec 18          	sub    $0x18,%rsp
  401175:	48 8d 4c 24 08       	lea    0x8(%rsp),%rcx
  40117a:	48 8d 54 24 0c       	lea    0xc(%rsp),%rdx
  40117f:	48 8d 35 5d 12 00 00 	lea    0x125d(%rip),%rsi        # 4023e3 <array.3088+0x363>
  401186:	b8 00 00 00 00       	mov    $0x0,%eax
  40118b:	e8 40 fb ff ff       	callq  400cd0 <__isoc99_sscanf@plt>
  401190:	83 f8 01             	cmp    $0x1,%eax
  401193:	7e 4d                	jle    4011e2 <phase_5+0x71>
  401195:	8b 44 24 0c          	mov    0xc(%rsp),%eax
  401199:	83 e0 0f             	and    $0xf,%eax
  40119c:	89 44 24 0c          	mov    %eax,0xc(%rsp)
  4011a0:	83 f8 0f             	cmp    $0xf,%eax
  4011a3:	74 33                	je     4011d8 <phase_5+0x67>
  4011a5:	b9 00 00 00 00       	mov    $0x0,%ecx
  4011aa:	ba 00 00 00 00       	mov    $0x0,%edx
  4011af:	48 8d 35 ca 0e 00 00 	lea    0xeca(%rip),%rsi        # 402080 <array.3088>
  4011b6:	83 c2 01             	add    $0x1,%edx
  4011b9:	48 98                	cltq   
  4011bb:	8b 04 86             	mov    (%rsi,%rax,4),%eax
  4011be:	01 c1                	add    %eax,%ecx
  4011c0:	83 f8 0f             	cmp    $0xf,%eax
  4011c3:	75 f1                	jne    4011b6 <phase_5+0x45>
  4011c5:	c7 44 24 0c 0f 00 00 	movl   $0xf,0xc(%rsp)
  4011cc:	00 
  4011cd:	83 fa 08             	cmp    $0x8,%edx
  4011d0:	75 06                	jne    4011d8 <phase_5+0x67>
  4011d2:	3b 4c 24 08          	cmp    0x8(%rsp),%ecx
  4011d6:	74 05                	je     4011dd <phase_5+0x6c>
  4011d8:	e8 32 0a 00 00       	callq  401c0f <explode_bomb>
  4011dd:	48 83 c4 18          	add    $0x18,%rsp
  4011e1:	c3                   	retq   
  4011e2:	e8 28 0a 00 00       	callq  401c0f <explode_bomb>
  4011e7:	eb ac                	jmp    401195 <phase_5+0x24>

00000000004011e9 <phase_6>:
  4011e9:	41 55                	push   %r13
  4011eb:	41 54                	push   %r12
  4011ed:	55                   	push   %rbp
  4011ee:	53                   	push   %rbx
  4011ef:	48 83 ec 58          	sub    $0x58,%rsp
  4011f3:	4c 8d 64 24 30       	lea    0x30(%rsp),%r12
  4011f8:	4c 89 e6             	mov    %r12,%rsi
  4011fb:	e8 4b 0a 00 00       	callq  401c4b <read_six_numbers>
  401200:	41 bd 00 00 00 00    	mov    $0x0,%r13d
  401206:	eb 25                	jmp    40122d <phase_6+0x44>
  401208:	41 83 c5 01          	add    $0x1,%r13d
  40120c:	41 83 fd 06          	cmp    $0x6,%r13d
  401210:	74 38                	je     40124a <phase_6+0x61>
  401212:	44 89 eb             	mov    %r13d,%ebx
  401215:	48 63 c3             	movslq %ebx,%rax
  401218:	8b 44 84 30          	mov    0x30(%rsp,%rax,4),%eax
  40121c:	39 45 00             	cmp    %eax,0x0(%rbp)
  40121f:	74 22                	je     401243 <phase_6+0x5a>
  401221:	83 c3 01             	add    $0x1,%ebx
  401224:	83 fb 05             	cmp    $0x5,%ebx
  401227:	7e ec                	jle    401215 <phase_6+0x2c>
  401229:	49 83 c4 04          	add    $0x4,%r12
  40122d:	4c 89 e5             	mov    %r12,%rbp
  401230:	41 8b 04 24          	mov    (%r12),%eax
  401234:	83 e8 01             	sub    $0x1,%eax
  401237:	83 f8 05             	cmp    $0x5,%eax
  40123a:	76 cc                	jbe    401208 <phase_6+0x1f>
  40123c:	e8 ce 09 00 00       	callq  401c0f <explode_bomb>
  401241:	eb c5                	jmp    401208 <phase_6+0x1f>
  401243:	e8 c7 09 00 00       	callq  401c0f <explode_bomb>
  401248:	eb d7                	jmp    401221 <phase_6+0x38>
  40124a:	be 00 00 00 00       	mov    $0x0,%esi
  40124f:	8b 4c 34 30          	mov    0x30(%rsp,%rsi,1),%ecx
  401253:	b8 01 00 00 00       	mov    $0x1,%eax
  401258:	48 8d 15 f1 24 20 00 	lea    0x2024f1(%rip),%rdx        # 603750 <node1>
  40125f:	83 f9 01             	cmp    $0x1,%ecx
  401262:	7e 0b                	jle    40126f <phase_6+0x86>
  401264:	48 8b 52 08          	mov    0x8(%rdx),%rdx
  401268:	83 c0 01             	add    $0x1,%eax
  40126b:	39 c8                	cmp    %ecx,%eax
  40126d:	75 f5                	jne    401264 <phase_6+0x7b>
  40126f:	48 89 14 74          	mov    %rdx,(%rsp,%rsi,2)
  401273:	48 83 c6 04          	add    $0x4,%rsi
  401277:	48 83 fe 18          	cmp    $0x18,%rsi
  40127b:	75 d2                	jne    40124f <phase_6+0x66>
  40127d:	48 8b 1c 24          	mov    (%rsp),%rbx
  401281:	48 89 e0             	mov    %rsp,%rax
  401284:	48 8d 74 24 28       	lea    0x28(%rsp),%rsi
  401289:	48 89 d9             	mov    %rbx,%rcx
  40128c:	48 8b 50 08          	mov    0x8(%rax),%rdx
  401290:	48 89 51 08          	mov    %rdx,0x8(%rcx)
  401294:	48 83 c0 08          	add    $0x8,%rax
  401298:	48 89 d1             	mov    %rdx,%rcx
  40129b:	48 39 c6             	cmp    %rax,%rsi
  40129e:	75 ec                	jne    40128c <phase_6+0xa3>
  4012a0:	48 c7 42 08 00 00 00 	movq   $0x0,0x8(%rdx)
  4012a7:	00 
  4012a8:	bd 05 00 00 00       	mov    $0x5,%ebp
  4012ad:	eb 09                	jmp    4012b8 <phase_6+0xcf>
  4012af:	48 8b 5b 08          	mov    0x8(%rbx),%rbx
  4012b3:	83 ed 01             	sub    $0x1,%ebp
  4012b6:	74 11                	je     4012c9 <phase_6+0xe0>
  4012b8:	48 8b 43 08          	mov    0x8(%rbx),%rax
  4012bc:	8b 00                	mov    (%rax),%eax
  4012be:	39 03                	cmp    %eax,(%rbx)
  4012c0:	7d ed                	jge    4012af <phase_6+0xc6>
  4012c2:	e8 48 09 00 00       	callq  401c0f <explode_bomb>
  4012c7:	eb e6                	jmp    4012af <phase_6+0xc6>
  4012c9:	48 83 c4 58          	add    $0x58,%rsp
  4012cd:	5b                   	pop    %rbx
  4012ce:	5d                   	pop    %rbp
  4012cf:	41 5c                	pop    %r12
  4012d1:	41 5d                	pop    %r13
  4012d3:	c3                   	retq   

00000000004012d4 <fun7>:
  4012d4:	48 85 ff             	test   %rdi,%rdi
  4012d7:	74 32                	je     40130b <fun7+0x37>
  4012d9:	48 83 ec 08          	sub    $0x8,%rsp
  4012dd:	8b 17                	mov    (%rdi),%edx
  4012df:	39 f2                	cmp    %esi,%edx
  4012e1:	7f 1b                	jg     4012fe <fun7+0x2a>
  4012e3:	b8 00 00 00 00       	mov    $0x0,%eax
  4012e8:	39 f2                	cmp    %esi,%edx
  4012ea:	74 0d                	je     4012f9 <fun7+0x25>
  4012ec:	48 8b 7f 10          	mov    0x10(%rdi),%rdi
  4012f0:	e8 df ff ff ff       	callq  4012d4 <fun7>
  4012f5:	8d 44 00 01          	lea    0x1(%rax,%rax,1),%eax
  4012f9:	48 83 c4 08          	add    $0x8,%rsp
  4012fd:	c3                   	retq   
  4012fe:	48 8b 7f 08          	mov    0x8(%rdi),%rdi
  401302:	e8 cd ff ff ff       	callq  4012d4 <fun7>
  401307:	01 c0                	add    %eax,%eax
  401309:	eb ee                	jmp    4012f9 <fun7+0x25>
  40130b:	b8 ff ff ff ff       	mov    $0xffffffff,%eax
  401310:	c3                   	retq   

0000000000401311 <secret_phase>:
  401311:	53                   	push   %rbx
  401312:	e8 75 09 00 00       	callq  401c8c <read_line>
  401317:	ba 0a 00 00 00       	mov    $0xa,%edx
  40131c:	be 00 00 00 00       	mov    $0x0,%esi
  401321:	48 89 c7             	mov    %rax,%rdi
  401324:	e8 77 f9 ff ff       	callq  400ca0 <strtol@plt>
  401329:	48 89 c3             	mov    %rax,%rbx
  40132c:	8d 40 ff             	lea    -0x1(%rax),%eax
  40132f:	3d e8 03 00 00       	cmp    $0x3e8,%eax
  401334:	77 2b                	ja     401361 <secret_phase+0x50>
  401336:	89 de                	mov    %ebx,%esi
  401338:	48 8d 3d 31 23 20 00 	lea    0x202331(%rip),%rdi        # 603670 <n1>
  40133f:	e8 90 ff ff ff       	callq  4012d4 <fun7>
  401344:	83 f8 04             	cmp    $0x4,%eax
  401347:	74 05                	je     40134e <secret_phase+0x3d>
  401349:	e8 c1 08 00 00       	callq  401c0f <explode_bomb>
  40134e:	48 8d 3d e3 0c 00 00 	lea    0xce3(%rip),%rdi        # 402038 <_IO_stdin_used+0x178>
  401355:	e8 66 f8 ff ff       	callq  400bc0 <puts@plt>
  40135a:	e8 2e 0a 00 00       	callq  401d8d <phase_defused>
  40135f:	5b                   	pop    %rbx
  401360:	c3                   	retq   
  401361:	e8 a9 08 00 00       	callq  401c0f <explode_bomb>
  401366:	eb ce                	jmp    401336 <secret_phase+0x25>

0000000000401368 <sig_handler>:
  401368:	48 83 ec 08          	sub    $0x8,%rsp
  40136c:	48 8d 3d 4d 0d 00 00 	lea    0xd4d(%rip),%rdi        # 4020c0 <array.3088+0x40>
  401373:	e8 48 f8 ff ff       	callq  400bc0 <puts@plt>
  401378:	bf 03 00 00 00       	mov    $0x3,%edi
  40137d:	e8 de f9 ff ff       	callq  400d60 <sleep@plt>
  401382:	48 8d 3d 6f 0e 00 00 	lea    0xe6f(%rip),%rdi        # 4021f8 <array.3088+0x178>
  401389:	b8 00 00 00 00       	mov    $0x0,%eax
  40138e:	e8 6d f8 ff ff       	callq  400c00 <printf@plt>
  401393:	48 8b 3d 06 24 20 00 	mov    0x202406(%rip),%rdi        # 6037a0 <stdout@@GLIBC_2.2.5>
  40139a:	e8 21 f9 ff ff       	callq  400cc0 <fflush@plt>
  40139f:	bf 01 00 00 00       	mov    $0x1,%edi
  4013a4:	e8 b7 f9 ff ff       	callq  400d60 <sleep@plt>
  4013a9:	48 8d 3d 50 0e 00 00 	lea    0xe50(%rip),%rdi        # 402200 <array.3088+0x180>
  4013b0:	e8 0b f8 ff ff       	callq  400bc0 <puts@plt>
  4013b5:	bf 10 00 00 00       	mov    $0x10,%edi
  4013ba:	e8 71 f9 ff ff       	callq  400d30 <exit@plt>

00000000004013bf <invalid_phase>:
  4013bf:	48 83 ec 08          	sub    $0x8,%rsp
  4013c3:	48 89 fe             	mov    %rdi,%rsi
  4013c6:	48 8d 3d 3b 0e 00 00 	lea    0xe3b(%rip),%rdi        # 402208 <array.3088+0x188>
  4013cd:	b8 00 00 00 00       	mov    $0x0,%eax
  4013d2:	e8 29 f8 ff ff       	callq  400c00 <printf@plt>
  4013d7:	bf 08 00 00 00       	mov    $0x8,%edi
  4013dc:	e8 4f f9 ff ff       	callq  400d30 <exit@plt>

00000000004013e1 <string_length>:
  4013e1:	80 3f 00             	cmpb   $0x0,(%rdi)
  4013e4:	74 13                	je     4013f9 <string_length+0x18>
  4013e6:	b8 00 00 00 00       	mov    $0x0,%eax
  4013eb:	48 83 c7 01          	add    $0x1,%rdi
  4013ef:	83 c0 01             	add    $0x1,%eax
  4013f2:	80 3f 00             	cmpb   $0x0,(%rdi)
  4013f5:	75 f4                	jne    4013eb <string_length+0xa>
  4013f7:	f3 c3                	repz retq 
  4013f9:	b8 00 00 00 00       	mov    $0x0,%eax
  4013fe:	c3                   	retq   

00000000004013ff <strings_not_equal>:
  4013ff:	41 54                	push   %r12
  401401:	55                   	push   %rbp
  401402:	53                   	push   %rbx
  401403:	48 89 fb             	mov    %rdi,%rbx
  401406:	48 89 f5             	mov    %rsi,%rbp
  401409:	e8 d3 ff ff ff       	callq  4013e1 <string_length>
  40140e:	41 89 c4             	mov    %eax,%r12d
  401411:	48 89 ef             	mov    %rbp,%rdi
  401414:	e8 c8 ff ff ff       	callq  4013e1 <string_length>
  401419:	ba 01 00 00 00       	mov    $0x1,%edx
  40141e:	41 39 c4             	cmp    %eax,%r12d
  401421:	74 07                	je     40142a <strings_not_equal+0x2b>
  401423:	89 d0                	mov    %edx,%eax
  401425:	5b                   	pop    %rbx
  401426:	5d                   	pop    %rbp
  401427:	41 5c                	pop    %r12
  401429:	c3                   	retq   
  40142a:	0f b6 03             	movzbl (%rbx),%eax
  40142d:	84 c0                	test   %al,%al
  40142f:	74 27                	je     401458 <strings_not_equal+0x59>
  401431:	3a 45 00             	cmp    0x0(%rbp),%al
  401434:	75 29                	jne    40145f <strings_not_equal+0x60>
  401436:	48 83 c3 01          	add    $0x1,%rbx
  40143a:	48 83 c5 01          	add    $0x1,%rbp
  40143e:	0f b6 03             	movzbl (%rbx),%eax
  401441:	84 c0                	test   %al,%al
  401443:	74 0c                	je     401451 <strings_not_equal+0x52>
  401445:	3a 45 00             	cmp    0x0(%rbp),%al
  401448:	74 ec                	je     401436 <strings_not_equal+0x37>
  40144a:	ba 01 00 00 00       	mov    $0x1,%edx
  40144f:	eb d2                	jmp    401423 <strings_not_equal+0x24>
  401451:	ba 00 00 00 00       	mov    $0x0,%edx
  401456:	eb cb                	jmp    401423 <strings_not_equal+0x24>
  401458:	ba 00 00 00 00       	mov    $0x0,%edx
  40145d:	eb c4                	jmp    401423 <strings_not_equal+0x24>
  40145f:	ba 01 00 00 00       	mov    $0x1,%edx
  401464:	eb bd                	jmp    401423 <strings_not_equal+0x24>

0000000000401466 <open_clientfd>:
  401466:	41 54                	push   %r12
  401468:	55                   	push   %rbp
  401469:	53                   	push   %rbx
  40146a:	48 83 ec 10          	sub    $0x10,%rsp
  40146e:	49 89 fc             	mov    %rdi,%r12
  401471:	89 f3                	mov    %esi,%ebx
  401473:	ba 00 00 00 00       	mov    $0x0,%edx
  401478:	be 01 00 00 00       	mov    $0x1,%esi
  40147d:	bf 02 00 00 00       	mov    $0x2,%edi
  401482:	e8 f9 f8 ff ff       	callq  400d80 <socket@plt>
  401487:	85 c0                	test   %eax,%eax
  401489:	78 64                	js     4014ef <open_clientfd+0x89>
  40148b:	89 c5                	mov    %eax,%ebp
  40148d:	4c 89 e7             	mov    %r12,%rdi
  401490:	e8 eb f7 ff ff       	callq  400c80 <gethostbyname@plt>
  401495:	48 85 c0             	test   %rax,%rax
  401498:	74 6b                	je     401505 <open_clientfd+0x9f>
  40149a:	48 c7 04 24 00 00 00 	movq   $0x0,(%rsp)
  4014a1:	00 
  4014a2:	48 c7 44 24 08 00 00 	movq   $0x0,0x8(%rsp)
  4014a9:	00 00 
  4014ab:	66 c7 04 24 02 00    	movw   $0x2,(%rsp)
  4014b1:	48 63 50 14          	movslq 0x14(%rax),%rdx
  4014b5:	48 8d 74 24 04       	lea    0x4(%rsp),%rsi
  4014ba:	48 8b 40 18          	mov    0x18(%rax),%rax
  4014be:	48 8b 38             	mov    (%rax),%rdi
  4014c1:	e8 1a f8 ff ff       	callq  400ce0 <bcopy@plt>
  4014c6:	89 de                	mov    %ebx,%esi
  4014c8:	66 c1 ce 08          	ror    $0x8,%si
  4014cc:	66 89 74 24 02       	mov    %si,0x2(%rsp)
  4014d1:	ba 10 00 00 00       	mov    $0x10,%edx
  4014d6:	48 89 e6             	mov    %rsp,%rsi
  4014d9:	89 ef                	mov    %ebp,%edi
  4014db:	e8 60 f8 ff ff       	callq  400d40 <connect@plt>
  4014e0:	85 c0                	test   %eax,%eax
  4014e2:	78 37                	js     40151b <open_clientfd+0xb5>
  4014e4:	89 e8                	mov    %ebp,%eax
  4014e6:	48 83 c4 10          	add    $0x10,%rsp
  4014ea:	5b                   	pop    %rbx
  4014eb:	5d                   	pop    %rbp
  4014ec:	41 5c                	pop    %r12
  4014ee:	c3                   	retq   
  4014ef:	48 8d 3d 23 0d 00 00 	lea    0xd23(%rip),%rdi        # 402219 <array.3088+0x199>
  4014f6:	e8 c5 f6 ff ff       	callq  400bc0 <puts@plt>
  4014fb:	bf 08 00 00 00       	mov    $0x8,%edi
  401500:	e8 2b f8 ff ff       	callq  400d30 <exit@plt>
  401505:	48 8d 3d 1b 0d 00 00 	lea    0xd1b(%rip),%rdi        # 402227 <array.3088+0x1a7>
  40150c:	e8 af f6 ff ff       	callq  400bc0 <puts@plt>
  401511:	bf 08 00 00 00       	mov    $0x8,%edi
  401516:	e8 15 f8 ff ff       	callq  400d30 <exit@plt>
  40151b:	48 8d 3d 13 0d 00 00 	lea    0xd13(%rip),%rdi        # 402235 <array.3088+0x1b5>
  401522:	e8 99 f6 ff ff       	callq  400bc0 <puts@plt>
  401527:	bf 08 00 00 00       	mov    $0x8,%edi
  40152c:	e8 ff f7 ff ff       	callq  400d30 <exit@plt>

0000000000401531 <initialize_bomb>:
  401531:	48 83 ec 08          	sub    $0x8,%rsp
  401535:	48 8d 35 2c fe ff ff 	lea    -0x1d4(%rip),%rsi        # 401368 <sig_handler>
  40153c:	bf 02 00 00 00       	mov    $0x2,%edi
  401541:	e8 2a f7 ff ff       	callq  400c70 <signal@plt>
  401546:	be 50 00 00 00       	mov    $0x50,%esi
  40154b:	48 8d 3d f1 0c 00 00 	lea    0xcf1(%rip),%rdi        # 402243 <array.3088+0x1c3>
  401552:	e8 0f ff ff ff       	callq  401466 <open_clientfd>
  401557:	89 c7                	mov    %eax,%edi
  401559:	e8 d2 f6 ff ff       	callq  400c30 <close@plt>
  40155e:	48 83 c4 08          	add    $0x8,%rsp
  401562:	c3                   	retq   

0000000000401563 <blank_line>:
  401563:	55                   	push   %rbp
  401564:	53                   	push   %rbx
  401565:	48 83 ec 08          	sub    $0x8,%rsp
  401569:	48 89 fd             	mov    %rdi,%rbp
  40156c:	0f b6 5d 00          	movzbl 0x0(%rbp),%ebx
  401570:	84 db                	test   %bl,%bl
  401572:	74 1e                	je     401592 <blank_line+0x2f>
  401574:	e8 f7 f7 ff ff       	callq  400d70 <__ctype_b_loc@plt>
  401579:	48 83 c5 01          	add    $0x1,%rbp
  40157d:	48 0f be db          	movsbq %bl,%rbx
  401581:	48 8b 00             	mov    (%rax),%rax
  401584:	f6 44 58 01 20       	testb  $0x20,0x1(%rax,%rbx,2)
  401589:	75 e1                	jne    40156c <blank_line+0x9>
  40158b:	b8 00 00 00 00       	mov    $0x0,%eax
  401590:	eb 05                	jmp    401597 <blank_line+0x34>
  401592:	b8 01 00 00 00       	mov    $0x1,%eax
  401597:	48 83 c4 08          	add    $0x8,%rsp
  40159b:	5b                   	pop    %rbx
  40159c:	5d                   	pop    %rbp
  40159d:	c3                   	retq   

000000000040159e <skip>:
  40159e:	55                   	push   %rbp
  40159f:	53                   	push   %rbx
  4015a0:	48 83 ec 08          	sub    $0x8,%rsp
  4015a4:	48 8d 2d 35 22 20 00 	lea    0x202235(%rip),%rbp        # 6037e0 <input_strings>
  4015ab:	48 63 05 0a 22 20 00 	movslq 0x20220a(%rip),%rax        # 6037bc <num_input_strings>
  4015b2:	48 8d 3c 80          	lea    (%rax,%rax,4),%rdi
  4015b6:	48 c1 e7 04          	shl    $0x4,%rdi
  4015ba:	48 01 ef             	add    %rbp,%rdi
  4015bd:	48 8b 15 fc 21 20 00 	mov    0x2021fc(%rip),%rdx        # 6037c0 <infile>
  4015c4:	be 50 00 00 00       	mov    $0x50,%esi
  4015c9:	e8 82 f6 ff ff       	callq  400c50 <fgets@plt>
  4015ce:	48 89 c3             	mov    %rax,%rbx
  4015d1:	48 85 c0             	test   %rax,%rax
  4015d4:	74 0c                	je     4015e2 <skip+0x44>
  4015d6:	48 89 c7             	mov    %rax,%rdi
  4015d9:	e8 85 ff ff ff       	callq  401563 <blank_line>
  4015de:	85 c0                	test   %eax,%eax
  4015e0:	75 c9                	jne    4015ab <skip+0xd>
  4015e2:	48 89 d8             	mov    %rbx,%rax
  4015e5:	48 83 c4 08          	add    $0x8,%rsp
  4015e9:	5b                   	pop    %rbx
  4015ea:	5d                   	pop    %rbp
  4015eb:	c3                   	retq   

00000000004015ec <writen>:
  4015ec:	41 56                	push   %r14
  4015ee:	41 55                	push   %r13
  4015f0:	41 54                	push   %r12
  4015f2:	55                   	push   %rbp
  4015f3:	53                   	push   %rbx
  4015f4:	49 89 d5             	mov    %rdx,%r13
  4015f7:	48 85 d2             	test   %rdx,%rdx
  4015fa:	74 3b                	je     401637 <writen+0x4b>
  4015fc:	41 89 fc             	mov    %edi,%r12d
  4015ff:	48 89 f5             	mov    %rsi,%rbp
  401602:	48 89 d3             	mov    %rdx,%rbx
  401605:	41 be 00 00 00 00    	mov    $0x0,%r14d
  40160b:	eb 08                	jmp    401615 <writen+0x29>
  40160d:	48 01 c5             	add    %rax,%rbp
  401610:	48 29 c3             	sub    %rax,%rbx
  401613:	74 22                	je     401637 <writen+0x4b>
  401615:	48 89 da             	mov    %rbx,%rdx
  401618:	48 89 ee             	mov    %rbp,%rsi
  40161b:	44 89 e7             	mov    %r12d,%edi
  40161e:	e8 ad f5 ff ff       	callq  400bd0 <write@plt>
  401623:	48 85 c0             	test   %rax,%rax
  401626:	7f e5                	jg     40160d <writen+0x21>
  401628:	e8 73 f5 ff ff       	callq  400ba0 <__errno_location@plt>
  40162d:	83 38 04             	cmpl   $0x4,(%rax)
  401630:	75 11                	jne    401643 <writen+0x57>
  401632:	4c 89 f0             	mov    %r14,%rax
  401635:	eb d6                	jmp    40160d <writen+0x21>
  401637:	4c 89 e8             	mov    %r13,%rax
  40163a:	5b                   	pop    %rbx
  40163b:	5d                   	pop    %rbp
  40163c:	41 5c                	pop    %r12
  40163e:	41 5d                	pop    %r13
  401640:	41 5e                	pop    %r14
  401642:	c3                   	retq   
  401643:	48 c7 c0 ff ff ff ff 	mov    $0xffffffffffffffff,%rax
  40164a:	eb ee                	jmp    40163a <writen+0x4e>

000000000040164c <send_msg>:
  40164c:	41 57                	push   %r15
  40164e:	41 56                	push   %r14
  401650:	41 55                	push   %r13
  401652:	41 54                	push   %r12
  401654:	55                   	push   %rbp
  401655:	53                   	push   %rbx
  401656:	48 81 ec 68 24 00 00 	sub    $0x2468,%rsp
  40165d:	41 89 fc             	mov    %edi,%r12d
  401660:	ba 00 00 00 00       	mov    $0x0,%edx
  401665:	be 01 00 00 00       	mov    $0x1,%esi
  40166a:	bf 02 00 00 00       	mov    $0x2,%edi
  40166f:	e8 0c f7 ff ff       	callq  400d80 <socket@plt>
  401674:	41 89 c7             	mov    %eax,%r15d
  401677:	85 c0                	test   %eax,%eax
  401679:	0f 88 2a 02 00 00    	js     4018a9 <send_msg+0x25d>
  40167f:	48 c7 84 24 50 24 00 	movq   $0x0,0x2450(%rsp)
  401686:	00 00 00 00 00 
  40168b:	48 c7 84 24 58 24 00 	movq   $0x0,0x2458(%rsp)
  401692:	00 00 00 00 00 
  401697:	66 c7 84 24 50 24 00 	movw   $0x2,0x2450(%rsp)
  40169e:	00 02 00 
  4016a1:	66 c7 84 24 52 24 00 	movw   $0x7ac8,0x2452(%rsp)
  4016a8:	00 c8 7a 
  4016ab:	48 8d 94 24 54 24 00 	lea    0x2454(%rsp),%rdx
  4016b2:	00 
  4016b3:	48 8d 35 89 0b 00 00 	lea    0xb89(%rip),%rsi        # 402243 <array.3088+0x1c3>
  4016ba:	bf 02 00 00 00       	mov    $0x2,%edi
  4016bf:	b8 00 00 00 00       	mov    $0x0,%eax
  4016c4:	e8 e7 f5 ff ff       	callq  400cb0 <inet_pton@plt>
  4016c9:	85 c0                	test   %eax,%eax
  4016cb:	0f 88 09 02 00 00    	js     4018da <send_msg+0x28e>
  4016d1:	48 8d b4 24 50 24 00 	lea    0x2450(%rsp),%rsi
  4016d8:	00 
  4016d9:	ba 10 00 00 00       	mov    $0x10,%edx
  4016de:	44 89 ff             	mov    %r15d,%edi
  4016e1:	e8 5a f6 ff ff       	callq  400d40 <connect@plt>
  4016e6:	85 c0                	test   %eax,%eax
  4016e8:	0f 88 22 02 00 00    	js     401910 <send_msg+0x2c4>
  4016ee:	48 8d 6c 24 50       	lea    0x50(%rsp),%rbp
  4016f3:	48 b8 53 75 62 6a 65 	movabs $0x3a7463656a627553,%rax
  4016fa:	63 74 3a 
  4016fd:	48 89 44 24 50       	mov    %rax,0x50(%rsp)
  401702:	48 b8 20 42 6f 6d 62 	movabs $0x6f6e20626d6f4220,%rax
  401709:	20 6e 6f 
  40170c:	48 89 44 24 58       	mov    %rax,0x58(%rsp)
  401711:	48 b8 74 69 66 69 63 	movabs $0x6974616369666974,%rax
  401718:	61 74 69 
  40171b:	48 89 44 24 60       	mov    %rax,0x60(%rsp)
  401720:	c7 44 24 68 6f 6e 0a 	movl   $0xa6e6f,0x68(%rsp)
  401727:	00 
  401728:	48 8d 9c 24 50 04 00 	lea    0x450(%rsp),%rbx
  40172f:	00 
  401730:	48 89 ee             	mov    %rbp,%rsi
  401733:	48 89 df             	mov    %rbx,%rdi
  401736:	e8 d5 f5 ff ff       	callq  400d10 <strcat@plt>
  40173b:	66 c7 44 24 50 0a 00 	movw   $0xa,0x50(%rsp)
  401742:	48 89 ee             	mov    %rbp,%rsi
  401745:	48 89 df             	mov    %rbx,%rdi
  401748:	e8 c3 f5 ff ff       	callq  400d10 <strcat@plt>
  40174d:	bf 00 00 00 00       	mov    $0x0,%edi
  401752:	e8 99 f5 ff ff       	callq  400cf0 <cuserid@plt>
  401757:	48 85 c0             	test   %rax,%rax
  40175a:	0f 84 e6 01 00 00    	je     401946 <send_msg+0x2fa>
  401760:	48 89 e7             	mov    %rsp,%rdi
  401763:	48 89 c6             	mov    %rax,%rsi
  401766:	e8 45 f4 ff ff       	callq  400bb0 <strcpy@plt>
  40176b:	45 85 e4             	test   %r12d,%r12d
  40176e:	48 8d 05 e4 0a 00 00 	lea    0xae4(%rip),%rax        # 402259 <array.3088+0x1d9>
  401775:	4c 8d 0d d5 0a 00 00 	lea    0xad5(%rip),%r9        # 402251 <array.3088+0x1d1>
  40177c:	4c 0f 44 c8          	cmove  %rax,%r9
  401780:	48 8d 5c 24 50       	lea    0x50(%rsp),%rbx
  401785:	48 83 ec 08          	sub    $0x8,%rsp
  401789:	8b 05 2d 20 20 00    	mov    0x20202d(%rip),%eax        # 6037bc <num_input_strings>
  40178f:	50                   	push   %rax
  401790:	4c 8d 44 24 10       	lea    0x10(%rsp),%r8
  401795:	8b 0d c5 1e 20 00    	mov    0x201ec5(%rip),%ecx        # 603660 <bomb_id>
  40179b:	48 8d 15 be 1a 20 00 	lea    0x201abe(%rip),%rdx        # 603260 <lab_id>
  4017a2:	48 8d 35 d4 0a 00 00 	lea    0xad4(%rip),%rsi        # 40227d <array.3088+0x1fd>
  4017a9:	48 89 df             	mov    %rbx,%rdi
  4017ac:	b8 00 00 00 00       	mov    $0x0,%eax
  4017b1:	e8 6a f5 ff ff       	callq  400d20 <sprintf@plt>
  4017b6:	48 8d bc 24 60 04 00 	lea    0x460(%rsp),%rdi
  4017bd:	00 
  4017be:	48 89 de             	mov    %rbx,%rsi
  4017c1:	e8 4a f5 ff ff       	callq  400d10 <strcat@plt>
  4017c6:	48 83 c4 10          	add    $0x10,%rsp
  4017ca:	83 3d eb 1f 20 00 00 	cmpl   $0x0,0x201feb(%rip)        # 6037bc <num_input_strings>
  4017d1:	7e 70                	jle    401843 <send_msg+0x1f7>
  4017d3:	bb 00 00 00 00       	mov    $0x0,%ebx
  4017d8:	4c 8d 35 01 20 20 00 	lea    0x202001(%rip),%r14        # 6037e0 <input_strings>
  4017df:	49 89 e5             	mov    %rsp,%r13
  4017e2:	48 8d 6c 24 50       	lea    0x50(%rsp),%rbp
  4017e7:	4c 8d a4 24 50 04 00 	lea    0x450(%rsp),%r12
  4017ee:	00 
  4017ef:	48 63 c3             	movslq %ebx,%rax
  4017f2:	48 8d 04 80          	lea    (%rax,%rax,4),%rax
  4017f6:	48 c1 e0 04          	shl    $0x4,%rax
  4017fa:	4c 01 f0             	add    %r14,%rax
  4017fd:	83 c3 01             	add    $0x1,%ebx
  401800:	48 83 ec 08          	sub    $0x8,%rsp
  401804:	50                   	push   %rax
  401805:	41 89 d9             	mov    %ebx,%r9d
  401808:	4d 89 e8             	mov    %r13,%r8
  40180b:	8b 0d 4f 1e 20 00    	mov    0x201e4f(%rip),%ecx        # 603660 <bomb_id>
  401811:	48 8d 15 48 1a 20 00 	lea    0x201a48(%rip),%rdx        # 603260 <lab_id>
  401818:	48 8d 35 7a 0a 00 00 	lea    0xa7a(%rip),%rsi        # 402299 <array.3088+0x219>
  40181f:	48 89 ef             	mov    %rbp,%rdi
  401822:	b8 00 00 00 00       	mov    $0x0,%eax
  401827:	e8 f4 f4 ff ff       	callq  400d20 <sprintf@plt>
  40182c:	48 89 ee             	mov    %rbp,%rsi
  40182f:	4c 89 e7             	mov    %r12,%rdi
  401832:	e8 d9 f4 ff ff       	callq  400d10 <strcat@plt>
  401837:	48 83 c4 10          	add    $0x10,%rsp
  40183b:	39 1d 7b 1f 20 00    	cmp    %ebx,0x201f7b(%rip)        # 6037bc <num_input_strings>
  401841:	7f ac                	jg     4017ef <send_msg+0x1a3>
  401843:	48 8d ac 24 50 04 00 	lea    0x450(%rsp),%rbp
  40184a:	00 
  40184b:	49 c7 c4 ff ff ff ff 	mov    $0xffffffffffffffff,%r12
  401852:	bb 00 00 00 00       	mov    $0x0,%ebx
  401857:	4c 89 e1             	mov    %r12,%rcx
  40185a:	48 89 ef             	mov    %rbp,%rdi
  40185d:	89 d8                	mov    %ebx,%eax
  40185f:	f2 ae                	repnz scas %es:(%rdi),%al
  401861:	48 f7 d1             	not    %rcx
  401864:	4a 8d 14 21          	lea    (%rcx,%r12,1),%rdx
  401868:	48 89 ee             	mov    %rbp,%rsi
  40186b:	44 89 ff             	mov    %r15d,%edi
  40186e:	e8 79 fd ff ff       	callq  4015ec <writen>
  401873:	48 89 c2             	mov    %rax,%rdx
  401876:	4c 89 e1             	mov    %r12,%rcx
  401879:	48 89 ef             	mov    %rbp,%rdi
  40187c:	89 d8                	mov    %ebx,%eax
  40187e:	f2 ae                	repnz scas %es:(%rdi),%al
  401880:	48 f7 d1             	not    %rcx
  401883:	4c 01 e1             	add    %r12,%rcx
  401886:	48 39 ca             	cmp    %rcx,%rdx
  401889:	0f 82 cf 00 00 00    	jb     40195e <send_msg+0x312>
  40188f:	44 89 ff             	mov    %r15d,%edi
  401892:	e8 99 f3 ff ff       	callq  400c30 <close@plt>
  401897:	48 81 c4 68 24 00 00 	add    $0x2468,%rsp
  40189e:	5b                   	pop    %rbx
  40189f:	5d                   	pop    %rbp
  4018a0:	41 5c                	pop    %r12
  4018a2:	41 5d                	pop    %r13
  4018a4:	41 5e                	pop    %r14
  4018a6:	41 5f                	pop    %r15
  4018a8:	c3                   	retq   
  4018a9:	48 8d 15 b2 09 00 00 	lea    0x9b2(%rip),%rdx        # 402262 <array.3088+0x1e2>
  4018b0:	48 8d 35 26 06 00 00 	lea    0x626(%rip),%rsi        # 401edd <_IO_stdin_used+0x1d>
  4018b7:	48 8b 3d e2 1e 20 00 	mov    0x201ee2(%rip),%rdi        # 6037a0 <stdout@@GLIBC_2.2.5>
  4018be:	b8 00 00 00 00       	mov    $0x0,%eax
  4018c3:	e8 c8 f3 ff ff       	callq  400c90 <fprintf@plt>
  4018c8:	44 89 ff             	mov    %r15d,%edi
  4018cb:	e8 60 f3 ff ff       	callq  400c30 <close@plt>
  4018d0:	bf 01 00 00 00       	mov    $0x1,%edi
  4018d5:	e8 56 f4 ff ff       	callq  400d30 <exit@plt>
  4018da:	48 8d 15 f5 09 00 00 	lea    0x9f5(%rip),%rdx        # 4022d6 <array.3088+0x256>
  4018e1:	48 8d 35 f5 05 00 00 	lea    0x5f5(%rip),%rsi        # 401edd <_IO_stdin_used+0x1d>
  4018e8:	48 8b 3d b1 1e 20 00 	mov    0x201eb1(%rip),%rdi        # 6037a0 <stdout@@GLIBC_2.2.5>
  4018ef:	b8 00 00 00 00       	mov    $0x0,%eax
  4018f4:	e8 97 f3 ff ff       	callq  400c90 <fprintf@plt>
  4018f9:	45 85 ff             	test   %r15d,%r15d
  4018fc:	74 08                	je     401906 <send_msg+0x2ba>
  4018fe:	44 89 ff             	mov    %r15d,%edi
  401901:	e8 2a f3 ff ff       	callq  400c30 <close@plt>
  401906:	bf 01 00 00 00       	mov    $0x1,%edi
  40190b:	e8 20 f4 ff ff       	callq  400d30 <exit@plt>
  401910:	48 8d 15 58 09 00 00 	lea    0x958(%rip),%rdx        # 40226f <array.3088+0x1ef>
  401917:	48 8d 35 bf 05 00 00 	lea    0x5bf(%rip),%rsi        # 401edd <_IO_stdin_used+0x1d>
  40191e:	48 8b 3d 7b 1e 20 00 	mov    0x201e7b(%rip),%rdi        # 6037a0 <stdout@@GLIBC_2.2.5>
  401925:	b8 00 00 00 00       	mov    $0x0,%eax
  40192a:	e8 61 f3 ff ff       	callq  400c90 <fprintf@plt>
  40192f:	45 85 ff             	test   %r15d,%r15d
  401932:	74 08                	je     40193c <send_msg+0x2f0>
  401934:	44 89 ff             	mov    %r15d,%edi
  401937:	e8 f4 f2 ff ff       	callq  400c30 <close@plt>
  40193c:	bf 01 00 00 00       	mov    $0x1,%edi
  401941:	e8 ea f3 ff ff       	callq  400d30 <exit@plt>
  401946:	c7 04 24 6e 6f 62 6f 	movl   $0x6f626f6e,(%rsp)
  40194d:	66 c7 44 24 04 64 79 	movw   $0x7964,0x4(%rsp)
  401954:	c6 44 24 06 00       	movb   $0x0,0x6(%rsp)
  401959:	e9 0d fe ff ff       	jmpq   40176b <send_msg+0x11f>
  40195e:	48 8d 15 50 09 00 00 	lea    0x950(%rip),%rdx        # 4022b5 <array.3088+0x235>
  401965:	48 8d 35 71 05 00 00 	lea    0x571(%rip),%rsi        # 401edd <_IO_stdin_used+0x1d>
  40196c:	48 8b 3d 2d 1e 20 00 	mov    0x201e2d(%rip),%rdi        # 6037a0 <stdout@@GLIBC_2.2.5>
  401973:	e8 18 f3 ff ff       	callq  400c90 <fprintf@plt>
  401978:	45 85 ff             	test   %r15d,%r15d
  40197b:	74 08                	je     401985 <send_msg+0x339>
  40197d:	44 89 ff             	mov    %r15d,%edi
  401980:	e8 ab f2 ff ff       	callq  400c30 <close@plt>
  401985:	bf 01 00 00 00       	mov    $0x1,%edi
  40198a:	e8 a1 f3 ff ff       	callq  400d30 <exit@plt>

000000000040198f <send_msg_2>:
  40198f:	41 57                	push   %r15
  401991:	41 56                	push   %r14
  401993:	41 55                	push   %r13
  401995:	41 54                	push   %r12
  401997:	55                   	push   %rbp
  401998:	53                   	push   %rbx
  401999:	48 83 ec 68          	sub    $0x68,%rsp
  40199d:	89 fb                	mov    %edi,%ebx
  40199f:	bf 00 00 00 00       	mov    $0x0,%edi
  4019a4:	e8 77 f2 ff ff       	callq  400c20 <dup@plt>
  4019a9:	89 44 24 0c          	mov    %eax,0xc(%rsp)
  4019ad:	83 f8 ff             	cmp    $0xffffffff,%eax
  4019b0:	0f 84 a6 01 00 00    	je     401b5c <send_msg_2+0x1cd>
  4019b6:	bf 00 00 00 00       	mov    $0x0,%edi
  4019bb:	e8 70 f2 ff ff       	callq  400c30 <close@plt>
  4019c0:	83 f8 ff             	cmp    $0xffffffff,%eax
  4019c3:	0f 84 a9 01 00 00    	je     401b72 <send_msg_2+0x1e3>
  4019c9:	e8 92 f2 ff ff       	callq  400c60 <tmpfile@plt>
  4019ce:	48 89 c5             	mov    %rax,%rbp
  4019d1:	48 85 c0             	test   %rax,%rax
  4019d4:	0f 84 ae 01 00 00    	je     401b88 <send_msg_2+0x1f9>
  4019da:	48 89 c1             	mov    %rax,%rcx
  4019dd:	ba 1b 00 00 00       	mov    $0x1b,%edx
  4019e2:	be 01 00 00 00       	mov    $0x1,%esi
  4019e7:	48 8d 3d 16 09 00 00 	lea    0x916(%rip),%rdi        # 402304 <array.3088+0x284>
  4019ee:	e8 5d f3 ff ff       	callq  400d50 <fwrite@plt>
  4019f3:	48 89 ee             	mov    %rbp,%rsi
  4019f6:	bf 0a 00 00 00       	mov    $0xa,%edi
  4019fb:	e8 40 f2 ff ff       	callq  400c40 <fputc@plt>
  401a00:	bf 00 00 00 00       	mov    $0x0,%edi
  401a05:	e8 e6 f2 ff ff       	callq  400cf0 <cuserid@plt>
  401a0a:	48 85 c0             	test   %rax,%rax
  401a0d:	0f 84 8b 01 00 00    	je     401b9e <send_msg_2+0x20f>
  401a13:	48 8d 7c 24 10       	lea    0x10(%rsp),%rdi
  401a18:	48 89 c6             	mov    %rax,%rsi
  401a1b:	e8 90 f1 ff ff       	callq  400bb0 <strcpy@plt>
  401a20:	85 db                	test   %ebx,%ebx
  401a22:	48 8d 05 30 08 00 00 	lea    0x830(%rip),%rax        # 402259 <array.3088+0x1d9>
  401a29:	4c 8d 0d 21 08 00 00 	lea    0x821(%rip),%r9        # 402251 <array.3088+0x1d1>
  401a30:	4c 0f 44 c8          	cmove  %rax,%r9
  401a34:	48 83 ec 08          	sub    $0x8,%rsp
  401a38:	8b 05 7e 1d 20 00    	mov    0x201d7e(%rip),%eax        # 6037bc <num_input_strings>
  401a3e:	50                   	push   %rax
  401a3f:	4c 8d 44 24 20       	lea    0x20(%rsp),%r8
  401a44:	8b 0d 16 1c 20 00    	mov    0x201c16(%rip),%ecx        # 603660 <bomb_id>
  401a4a:	48 8d 15 0f 18 20 00 	lea    0x20180f(%rip),%rdx        # 603260 <lab_id>
  401a51:	48 8d 35 25 08 00 00 	lea    0x825(%rip),%rsi        # 40227d <array.3088+0x1fd>
  401a58:	48 89 ef             	mov    %rbp,%rdi
  401a5b:	b8 00 00 00 00       	mov    $0x0,%eax
  401a60:	e8 2b f2 ff ff       	callq  400c90 <fprintf@plt>
  401a65:	48 83 c4 10          	add    $0x10,%rsp
  401a69:	83 3d 4c 1d 20 00 00 	cmpl   $0x0,0x201d4c(%rip)        # 6037bc <num_input_strings>
  401a70:	7e 60                	jle    401ad2 <send_msg_2+0x143>
  401a72:	bb 00 00 00 00       	mov    $0x0,%ebx
  401a77:	4c 8d 3d 62 1d 20 00 	lea    0x201d62(%rip),%r15        # 6037e0 <input_strings>
  401a7e:	4c 8d 74 24 10       	lea    0x10(%rsp),%r14
  401a83:	4c 8d 2d d6 17 20 00 	lea    0x2017d6(%rip),%r13        # 603260 <lab_id>
  401a8a:	4c 8d 25 08 08 00 00 	lea    0x808(%rip),%r12        # 402299 <array.3088+0x219>
  401a91:	48 63 c3             	movslq %ebx,%rax
  401a94:	48 8d 04 80          	lea    (%rax,%rax,4),%rax
  401a98:	48 c1 e0 04          	shl    $0x4,%rax
  401a9c:	4c 01 f8             	add    %r15,%rax
  401a9f:	83 c3 01             	add    $0x1,%ebx
  401aa2:	48 83 ec 08          	sub    $0x8,%rsp
  401aa6:	50                   	push   %rax
  401aa7:	41 89 d9             	mov    %ebx,%r9d
  401aaa:	4d 89 f0             	mov    %r14,%r8
  401aad:	8b 0d ad 1b 20 00    	mov    0x201bad(%rip),%ecx        # 603660 <bomb_id>
  401ab3:	4c 89 ea             	mov    %r13,%rdx
  401ab6:	4c 89 e6             	mov    %r12,%rsi
  401ab9:	48 89 ef             	mov    %rbp,%rdi
  401abc:	b8 00 00 00 00       	mov    $0x0,%eax
  401ac1:	e8 ca f1 ff ff       	callq  400c90 <fprintf@plt>
  401ac6:	48 83 c4 10          	add    $0x10,%rsp
  401aca:	39 1d ec 1c 20 00    	cmp    %ebx,0x201cec(%rip)        # 6037bc <num_input_strings>
  401ad0:	7f bf                	jg     401a91 <send_msg_2+0x102>
  401ad2:	48 89 ef             	mov    %rbp,%rdi
  401ad5:	e8 36 f1 ff ff       	callq  400c10 <rewind@plt>
  401ada:	4c 8d 05 3f 08 00 00 	lea    0x83f(%rip),%r8        # 402320 <array.3088+0x2a0>
  401ae1:	48 8d 0d 42 08 00 00 	lea    0x842(%rip),%rcx        # 40232a <array.3088+0x2aa>
  401ae8:	48 8d 15 43 08 00 00 	lea    0x843(%rip),%rdx        # 402332 <array.3088+0x2b2>
  401aef:	48 8d 35 53 08 00 00 	lea    0x853(%rip),%rsi        # 402349 <array.3088+0x2c9>
  401af6:	48 8d 3d 23 23 20 00 	lea    0x202323(%rip),%rdi        # 603e20 <scratch>
  401afd:	b8 00 00 00 00       	mov    $0x0,%eax
  401b02:	e8 19 f2 ff ff       	callq  400d20 <sprintf@plt>
  401b07:	48 8d 3d 12 23 20 00 	lea    0x202312(%rip),%rdi        # 603e20 <scratch>
  401b0e:	e8 dd f0 ff ff       	callq  400bf0 <system@plt>
  401b13:	85 c0                	test   %eax,%eax
  401b15:	0f 85 9c 00 00 00    	jne    401bb7 <send_msg_2+0x228>
  401b1b:	48 89 ef             	mov    %rbp,%rdi
  401b1e:	e8 bd f0 ff ff       	callq  400be0 <fclose@plt>
  401b23:	85 c0                	test   %eax,%eax
  401b25:	0f 85 a2 00 00 00    	jne    401bcd <send_msg_2+0x23e>
  401b2b:	8b 7c 24 0c          	mov    0xc(%rsp),%edi
  401b2f:	e8 ec f0 ff ff       	callq  400c20 <dup@plt>
  401b34:	85 c0                	test   %eax,%eax
  401b36:	0f 85 a7 00 00 00    	jne    401be3 <send_msg_2+0x254>
  401b3c:	8b 7c 24 0c          	mov    0xc(%rsp),%edi
  401b40:	e8 eb f0 ff ff       	callq  400c30 <close@plt>
  401b45:	85 c0                	test   %eax,%eax
  401b47:	0f 85 ac 00 00 00    	jne    401bf9 <send_msg_2+0x26a>
  401b4d:	48 83 c4 68          	add    $0x68,%rsp
  401b51:	5b                   	pop    %rbx
  401b52:	5d                   	pop    %rbp
  401b53:	41 5c                	pop    %r12
  401b55:	41 5d                	pop    %r13
  401b57:	41 5e                	pop    %r14
  401b59:	41 5f                	pop    %r15
  401b5b:	c3                   	retq   
  401b5c:	48 8d 3d 65 07 00 00 	lea    0x765(%rip),%rdi        # 4022c8 <array.3088+0x248>
  401b63:	e8 58 f0 ff ff       	callq  400bc0 <puts@plt>
  401b68:	bf 08 00 00 00       	mov    $0x8,%edi
  401b6d:	e8 be f1 ff ff       	callq  400d30 <exit@plt>
  401b72:	48 8d 3d 63 07 00 00 	lea    0x763(%rip),%rdi        # 4022dc <array.3088+0x25c>
  401b79:	e8 42 f0 ff ff       	callq  400bc0 <puts@plt>
  401b7e:	bf 08 00 00 00       	mov    $0x8,%edi
  401b83:	e8 a8 f1 ff ff       	callq  400d30 <exit@plt>
  401b88:	48 8d 3d 60 07 00 00 	lea    0x760(%rip),%rdi        # 4022ef <array.3088+0x26f>
  401b8f:	e8 2c f0 ff ff       	callq  400bc0 <puts@plt>
  401b94:	bf 08 00 00 00       	mov    $0x8,%edi
  401b99:	e8 92 f1 ff ff       	callq  400d30 <exit@plt>
  401b9e:	c7 44 24 10 6e 6f 62 	movl   $0x6f626f6e,0x10(%rsp)
  401ba5:	6f 
  401ba6:	66 c7 44 24 14 64 79 	movw   $0x7964,0x14(%rsp)
  401bad:	c6 44 24 16 00       	movb   $0x0,0x16(%rsp)
  401bb2:	e9 69 fe ff ff       	jmpq   401a20 <send_msg_2+0x91>
  401bb7:	48 8d 3d 94 07 00 00 	lea    0x794(%rip),%rdi        # 402352 <array.3088+0x2d2>
  401bbe:	e8 fd ef ff ff       	callq  400bc0 <puts@plt>
  401bc3:	bf 08 00 00 00       	mov    $0x8,%edi
  401bc8:	e8 63 f1 ff ff       	callq  400d30 <exit@plt>
  401bcd:	48 8d 3d 98 07 00 00 	lea    0x798(%rip),%rdi        # 40236c <array.3088+0x2ec>
  401bd4:	e8 e7 ef ff ff       	callq  400bc0 <puts@plt>
  401bd9:	bf 08 00 00 00       	mov    $0x8,%edi
  401bde:	e8 4d f1 ff ff       	callq  400d30 <exit@plt>
  401be3:	48 8d 3d 9b 07 00 00 	lea    0x79b(%rip),%rdi        # 402385 <array.3088+0x305>
  401bea:	e8 d1 ef ff ff       	callq  400bc0 <puts@plt>
  401bef:	bf 08 00 00 00       	mov    $0x8,%edi
  401bf4:	e8 37 f1 ff ff       	callq  400d30 <exit@plt>
  401bf9:	48 8d 3d a0 07 00 00 	lea    0x7a0(%rip),%rdi        # 4023a0 <array.3088+0x320>
  401c00:	e8 bb ef ff ff       	callq  400bc0 <puts@plt>
  401c05:	bf 08 00 00 00       	mov    $0x8,%edi
  401c0a:	e8 21 f1 ff ff       	callq  400d30 <exit@plt>

0000000000401c0f <explode_bomb>:
  401c0f:	48 83 ec 08          	sub    $0x8,%rsp
  401c13:	48 8d 3d 9d 07 00 00 	lea    0x79d(%rip),%rdi        # 4023b7 <array.3088+0x337>
  401c1a:	e8 a1 ef ff ff       	callq  400bc0 <puts@plt>
  401c1f:	48 8d 3d 9a 07 00 00 	lea    0x79a(%rip),%rdi        # 4023c0 <array.3088+0x340>
  401c26:	e8 95 ef ff ff       	callq  400bc0 <puts@plt>
  401c2b:	bf 00 00 00 00       	mov    $0x0,%edi
  401c30:	e8 17 fa ff ff       	callq  40164c <send_msg>
  401c35:	48 8d 3d bc 04 00 00 	lea    0x4bc(%rip),%rdi        # 4020f8 <array.3088+0x78>
  401c3c:	e8 7f ef ff ff       	callq  400bc0 <puts@plt>
  401c41:	bf 08 00 00 00       	mov    $0x8,%edi
  401c46:	e8 e5 f0 ff ff       	callq  400d30 <exit@plt>

0000000000401c4b <read_six_numbers>:
  401c4b:	48 83 ec 08          	sub    $0x8,%rsp
  401c4f:	48 89 f2             	mov    %rsi,%rdx
  401c52:	48 8d 4e 04          	lea    0x4(%rsi),%rcx
  401c56:	48 8d 46 14          	lea    0x14(%rsi),%rax
  401c5a:	50                   	push   %rax
  401c5b:	48 8d 46 10          	lea    0x10(%rsi),%rax
  401c5f:	50                   	push   %rax
  401c60:	4c 8d 4e 0c          	lea    0xc(%rsi),%r9
  401c64:	4c 8d 46 08          	lea    0x8(%rsi),%r8
  401c68:	48 8d 35 68 07 00 00 	lea    0x768(%rip),%rsi        # 4023d7 <array.3088+0x357>
  401c6f:	b8 00 00 00 00       	mov    $0x0,%eax
  401c74:	e8 57 f0 ff ff       	callq  400cd0 <__isoc99_sscanf@plt>
  401c79:	48 83 c4 10          	add    $0x10,%rsp
  401c7d:	83 f8 05             	cmp    $0x5,%eax
  401c80:	7e 05                	jle    401c87 <read_six_numbers+0x3c>
  401c82:	48 83 c4 08          	add    $0x8,%rsp
  401c86:	c3                   	retq   
  401c87:	e8 83 ff ff ff       	callq  401c0f <explode_bomb>

0000000000401c8c <read_line>:
  401c8c:	48 83 ec 08          	sub    $0x8,%rsp
  401c90:	b8 00 00 00 00       	mov    $0x0,%eax
  401c95:	e8 04 f9 ff ff       	callq  40159e <skip>
  401c9a:	48 85 c0             	test   %rax,%rax
  401c9d:	74 6f                	je     401d0e <read_line+0x82>
  401c9f:	8b 35 17 1b 20 00    	mov    0x201b17(%rip),%esi        # 6037bc <num_input_strings>
  401ca5:	48 63 c6             	movslq %esi,%rax
  401ca8:	48 8d 14 80          	lea    (%rax,%rax,4),%rdx
  401cac:	48 c1 e2 04          	shl    $0x4,%rdx
  401cb0:	48 8d 05 29 1b 20 00 	lea    0x201b29(%rip),%rax        # 6037e0 <input_strings>
  401cb7:	48 01 c2             	add    %rax,%rdx
  401cba:	b8 00 00 00 00       	mov    $0x0,%eax
  401cbf:	48 c7 c1 ff ff ff ff 	mov    $0xffffffffffffffff,%rcx
  401cc6:	48 89 d7             	mov    %rdx,%rdi
  401cc9:	f2 ae                	repnz scas %es:(%rdi),%al
  401ccb:	48 f7 d1             	not    %rcx
  401cce:	48 83 e9 01          	sub    $0x1,%rcx
  401cd2:	83 f9 4f             	cmp    $0x4f,%ecx
  401cd5:	0f 84 a1 00 00 00    	je     401d7c <read_line+0xf0>
  401cdb:	83 e9 01             	sub    $0x1,%ecx
  401cde:	48 63 c9             	movslq %ecx,%rcx
  401ce1:	48 63 c6             	movslq %esi,%rax
  401ce4:	48 8d 04 80          	lea    (%rax,%rax,4),%rax
  401ce8:	48 c1 e0 04          	shl    $0x4,%rax
  401cec:	48 89 c7             	mov    %rax,%rdi
  401cef:	48 8d 05 ea 1a 20 00 	lea    0x201aea(%rip),%rax        # 6037e0 <input_strings>
  401cf6:	48 01 f8             	add    %rdi,%rax
  401cf9:	c6 04 08 00          	movb   $0x0,(%rax,%rcx,1)
  401cfd:	83 c6 01             	add    $0x1,%esi
  401d00:	89 35 b6 1a 20 00    	mov    %esi,0x201ab6(%rip)        # 6037bc <num_input_strings>
  401d06:	48 89 d0             	mov    %rdx,%rax
  401d09:	48 83 c4 08          	add    $0x8,%rsp
  401d0d:	c3                   	retq   
  401d0e:	48 8b 05 9b 1a 20 00 	mov    0x201a9b(%rip),%rax        # 6037b0 <stdin@@GLIBC_2.2.5>
  401d15:	48 39 05 a4 1a 20 00 	cmp    %rax,0x201aa4(%rip)        # 6037c0 <infile>
  401d1c:	74 43                	je     401d61 <read_line+0xd5>
  401d1e:	48 8d 3d e2 06 00 00 	lea    0x6e2(%rip),%rdi        # 402407 <array.3088+0x387>
  401d25:	e8 66 ee ff ff       	callq  400b90 <getenv@plt>
  401d2a:	48 85 c0             	test   %rax,%rax
  401d2d:	75 43                	jne    401d72 <read_line+0xe6>
  401d2f:	48 8b 05 7a 1a 20 00 	mov    0x201a7a(%rip),%rax        # 6037b0 <stdin@@GLIBC_2.2.5>
  401d36:	48 89 05 83 1a 20 00 	mov    %rax,0x201a83(%rip)        # 6037c0 <infile>
  401d3d:	b8 00 00 00 00       	mov    $0x0,%eax
  401d42:	e8 57 f8 ff ff       	callq  40159e <skip>
  401d47:	48 85 c0             	test   %rax,%rax
  401d4a:	0f 85 4f ff ff ff    	jne    401c9f <read_line+0x13>
  401d50:	48 8d 3d 92 06 00 00 	lea    0x692(%rip),%rdi        # 4023e9 <array.3088+0x369>
  401d57:	e8 64 ee ff ff       	callq  400bc0 <puts@plt>
  401d5c:	e8 ae fe ff ff       	callq  401c0f <explode_bomb>
  401d61:	48 8d 3d 81 06 00 00 	lea    0x681(%rip),%rdi        # 4023e9 <array.3088+0x369>
  401d68:	e8 53 ee ff ff       	callq  400bc0 <puts@plt>
  401d6d:	e8 9d fe ff ff       	callq  401c0f <explode_bomb>
  401d72:	bf 00 00 00 00       	mov    $0x0,%edi
  401d77:	e8 b4 ef ff ff       	callq  400d30 <exit@plt>
  401d7c:	48 8d 3d 8f 06 00 00 	lea    0x68f(%rip),%rdi        # 402412 <array.3088+0x392>
  401d83:	e8 38 ee ff ff       	callq  400bc0 <puts@plt>
  401d88:	e8 82 fe ff ff       	callq  401c0f <explode_bomb>

0000000000401d8d <phase_defused>:
  401d8d:	48 83 ec 68          	sub    $0x68,%rsp
  401d91:	bf 01 00 00 00       	mov    $0x1,%edi
  401d96:	e8 b1 f8 ff ff       	callq  40164c <send_msg>
  401d9b:	83 3d 1a 1a 20 00 06 	cmpl   $0x6,0x201a1a(%rip)        # 6037bc <num_input_strings>
  401da2:	74 05                	je     401da9 <phase_defused+0x1c>
  401da4:	48 83 c4 68          	add    $0x68,%rsp
  401da8:	c3                   	retq   
  401da9:	48 8d 4c 24 10       	lea    0x10(%rsp),%rcx
  401dae:	48 8d 54 24 0c       	lea    0xc(%rsp),%rdx
  401db3:	48 8d 35 73 06 00 00 	lea    0x673(%rip),%rsi        # 40242d <array.3088+0x3ad>
  401dba:	48 8d 3d 0f 1b 20 00 	lea    0x201b0f(%rip),%rdi        # 6038d0 <input_strings+0xf0>
  401dc1:	b8 00 00 00 00       	mov    $0x0,%eax
  401dc6:	e8 05 ef ff ff       	callq  400cd0 <__isoc99_sscanf@plt>
  401dcb:	83 f8 02             	cmp    $0x2,%eax
  401dce:	74 1a                	je     401dea <phase_defused+0x5d>
  401dd0:	48 8d 3d a9 03 00 00 	lea    0x3a9(%rip),%rdi        # 402180 <array.3088+0x100>
  401dd7:	e8 e4 ed ff ff       	callq  400bc0 <puts@plt>
  401ddc:	48 8d 3d cd 03 00 00 	lea    0x3cd(%rip),%rdi        # 4021b0 <array.3088+0x130>
  401de3:	e8 d8 ed ff ff       	callq  400bc0 <puts@plt>
  401de8:	eb ba                	jmp    401da4 <phase_defused+0x17>
  401dea:	48 8d 7c 24 10       	lea    0x10(%rsp),%rdi
  401def:	48 8d 35 3d 06 00 00 	lea    0x63d(%rip),%rsi        # 402433 <array.3088+0x3b3>
  401df6:	e8 04 f6 ff ff       	callq  4013ff <strings_not_equal>
  401dfb:	85 c0                	test   %eax,%eax
  401dfd:	75 d1                	jne    401dd0 <phase_defused+0x43>
  401dff:	48 8d 3d 1a 03 00 00 	lea    0x31a(%rip),%rdi        # 402120 <array.3088+0xa0>
  401e06:	e8 b5 ed ff ff       	callq  400bc0 <puts@plt>
  401e0b:	48 8d 3d 36 03 00 00 	lea    0x336(%rip),%rdi        # 402148 <array.3088+0xc8>
  401e12:	e8 a9 ed ff ff       	callq  400bc0 <puts@plt>
  401e17:	b8 00 00 00 00       	mov    $0x0,%eax
  401e1c:	e8 f0 f4 ff ff       	callq  401311 <secret_phase>
  401e21:	eb ad                	jmp    401dd0 <phase_defused+0x43>
  401e23:	66 2e 0f 1f 84 00 00 	nopw   %cs:0x0(%rax,%rax,1)
  401e2a:	00 00 00 
  401e2d:	0f 1f 00             	nopl   (%rax)

0000000000401e30 <__libc_csu_init>:
  401e30:	41 57                	push   %r15
  401e32:	41 56                	push   %r14
  401e34:	41 89 ff             	mov    %edi,%r15d
  401e37:	41 55                	push   %r13
  401e39:	41 54                	push   %r12
  401e3b:	4c 8d 25 c6 0f 20 00 	lea    0x200fc6(%rip),%r12        # 602e08 <__frame_dummy_init_array_entry>
  401e42:	55                   	push   %rbp
  401e43:	48 8d 2d c6 0f 20 00 	lea    0x200fc6(%rip),%rbp        # 602e10 <__init_array_end>
  401e4a:	53                   	push   %rbx
  401e4b:	49 89 f6             	mov    %rsi,%r14
  401e4e:	49 89 d5             	mov    %rdx,%r13
  401e51:	4c 29 e5             	sub    %r12,%rbp
  401e54:	48 83 ec 08          	sub    $0x8,%rsp
  401e58:	48 c1 fd 03          	sar    $0x3,%rbp
  401e5c:	e8 07 ed ff ff       	callq  400b68 <_init>
  401e61:	48 85 ed             	test   %rbp,%rbp
  401e64:	74 20                	je     401e86 <__libc_csu_init+0x56>
  401e66:	31 db                	xor    %ebx,%ebx
  401e68:	0f 1f 84 00 00 00 00 	nopl   0x0(%rax,%rax,1)
  401e6f:	00 
  401e70:	4c 89 ea             	mov    %r13,%rdx
  401e73:	4c 89 f6             	mov    %r14,%rsi
  401e76:	44 89 ff             	mov    %r15d,%edi
  401e79:	41 ff 14 dc          	callq  *(%r12,%rbx,8)
  401e7d:	48 83 c3 01          	add    $0x1,%rbx
  401e81:	48 39 dd             	cmp    %rbx,%rbp
  401e84:	75 ea                	jne    401e70 <__libc_csu_init+0x40>
  401e86:	48 83 c4 08          	add    $0x8,%rsp
  401e8a:	5b                   	pop    %rbx
  401e8b:	5d                   	pop    %rbp
  401e8c:	41 5c                	pop    %r12
  401e8e:	41 5d                	pop    %r13
  401e90:	41 5e                	pop    %r14
  401e92:	41 5f                	pop    %r15
  401e94:	c3                   	retq   
  401e95:	90                   	nop
  401e96:	66 2e 0f 1f 84 00 00 	nopw   %cs:0x0(%rax,%rax,1)
  401e9d:	00 00 00 

0000000000401ea0 <__libc_csu_fini>:
  401ea0:	f3 c3                	repz retq 

Disassembly of section .fini:

0000000000401ea4 <_fini>:
  401ea4:	48 83 ec 08          	sub    $0x8,%rsp
  401ea8:	48 83 c4 08          	add    $0x8,%rsp
  401eac:	c3                   	retq   
